target datalayout = "e-m:e-p270:32:32-p271:32:32-p272:64:64-i64:64-i128:128-f80:128-n8:16:32:64-S128"
target triple = "x86_64-pc-linux-gnu"

%struct.hwloc_topology = type { i32, i32, i32, ptr, ptr, i64, [20 x i32], [20 x i32], i64, i64, i32, ptr, i64, ptr, i64, [6 x %struct.hwloc_special_level_s], ptr, ptr, %struct.hwloc_binding_hooks, %struct.hwloc_topology_support, %struct.hwloc_infos_s, ptr, ptr, i32, ptr, ptr, i32, i32, ptr, i32, i32, ptr, i32, i32, i32, [5 x float], i32, ptr, ptr, i32, i32, ptr, i32, %struct.hwloc_numanode_attr_s, i32, i32, ptr, i64, i32, ptr, ptr, ptr }
%struct.hwloc_special_level_s = type { i32, ptr, ptr, ptr }
%struct.hwloc_binding_hooks = type { ptr, ptr, ptr, ptr, ptr, ptr, ptr, ptr, ptr, ptr, ptr, ptr, ptr, ptr, ptr, ptr, ptr, ptr, ptr, ptr, ptr, ptr, ptr, ptr }
%struct.hwloc_topology_support = type { ptr, ptr, ptr, ptr }
%struct.hwloc_infos_s = type { ptr, i32, i32 }
%struct.hwloc_numanode_attr_s = type { i64, i32, ptr }
%struct.hwloc_internal_cpukind_s = type { ptr, i32, i32, i64, %struct.hwloc_infos_s }
%struct.hwloc_tma = type { ptr, ptr, i32 }

; Function Attrs: nounwind uwtable
define hidden void @hwloc_internal_cpukinds_destroy(ptr noundef %0) #0 {
  %2 = alloca ptr, align 8
  %3 = alloca i32, align 4
  %4 = alloca ptr, align 8
  store ptr %0, ptr %2, align 8, !tbaa !3
  call void @llvm.lifetime.start.p0(i64 4, ptr %3) #14
  store i32 0, ptr %3, align 4, !tbaa !35
  br label %5

5:                                                ; preds = %23, %1
  %6 = load i32, ptr %3, align 4, !tbaa !35
  %7 = load ptr, ptr %2, align 8, !tbaa !3
  %8 = getelementptr inbounds nuw %struct.hwloc_topology, ptr %7, i32 0, i32 29
  %9 = load i32, ptr %8, align 8, !tbaa !33
  %10 = icmp ult i32 %6, %9
  br i1 %10, label %11, label %26

11:                                               ; preds = %5
  call void @llvm.lifetime.start.p0(i64 8, ptr %4) #14
  %12 = load ptr, ptr %2, align 8, !tbaa !3
  %13 = getelementptr inbounds nuw %struct.hwloc_topology, ptr %12, i32 0, i32 31
  %14 = load ptr, ptr %13, align 8, !tbaa !8
  %15 = load i32, ptr %3, align 4, !tbaa !35
  %16 = zext i32 %15 to i64
  %17 = getelementptr inbounds nuw %struct.hwloc_internal_cpukind_s, ptr %14, i64 %16
  store ptr %17, ptr %4, align 8, !tbaa !36
  %18 = load ptr, ptr %4, align 8, !tbaa !36
  %19 = getelementptr inbounds nuw %struct.hwloc_internal_cpukind_s, ptr %18, i32 0, i32 0
  %20 = load ptr, ptr %19, align 8, !tbaa !37
  call void @hwloc_bitmap_free(ptr noundef %20)
  %21 = load ptr, ptr %4, align 8, !tbaa !36
  %22 = getelementptr inbounds nuw %struct.hwloc_internal_cpukind_s, ptr %21, i32 0, i32 4
  call void @hwloc__free_infos(ptr noundef %22)
  call void @llvm.lifetime.end.p0(i64 8, ptr %4) #14
  br label %23

23:                                               ; preds = %11
  %24 = load i32, ptr %3, align 4, !tbaa !35
  %25 = add i32 %24, 1
  store i32 %25, ptr %3, align 4, !tbaa !35
  br label %5, !llvm.loop !39

26:                                               ; preds = %5
  %27 = load ptr, ptr %2, align 8, !tbaa !3
  %28 = getelementptr inbounds nuw %struct.hwloc_topology, ptr %27, i32 0, i32 31
  %29 = load ptr, ptr %28, align 8, !tbaa !8
  call void @free(ptr noundef %29) #14
  %30 = load ptr, ptr %2, align 8, !tbaa !3
  %31 = getelementptr inbounds nuw %struct.hwloc_topology, ptr %30, i32 0, i32 31
  store ptr null, ptr %31, align 8, !tbaa !8
  %32 = load ptr, ptr %2, align 8, !tbaa !3
  %33 = getelementptr inbounds nuw %struct.hwloc_topology, ptr %32, i32 0, i32 29
  store i32 0, ptr %33, align 8, !tbaa !33
  call void @llvm.lifetime.end.p0(i64 4, ptr %3) #14
  ret void
}

; Function Attrs: inlinehint nounwind uwtable
define internal ptr @hwloc_tma_malloc(ptr noundef %0, i64 noundef %1) #4 {
  %3 = alloca ptr, align 8
  %4 = alloca ptr, align 8
  %5 = alloca i64, align 8
  store ptr %0, ptr %4, align 8, !tbaa !42
  store i64 %1, ptr %5, align 8, !tbaa !44
  %6 = load ptr, ptr %4, align 8, !tbaa !42
  %7 = icmp ne ptr %6, null
  br i1 %7, label %8, label %15

8:                                                ; preds = %2
  %9 = load ptr, ptr %4, align 8, !tbaa !42
  %10 = getelementptr inbounds nuw %struct.hwloc_tma, ptr %9, i32 0, i32 0
  %11 = load ptr, ptr %10, align 8, !tbaa !45
  %12 = load ptr, ptr %4, align 8, !tbaa !42
  %13 = load i64, ptr %5, align 8, !tbaa !44
  %14 = call ptr %11(ptr noundef %12, i64 noundef %13)
  store ptr %14, ptr %3, align 8
  br label %18

15:                                               ; preds = %2
  %16 = load i64, ptr %5, align 8, !tbaa !44
  %17 = call noalias ptr @malloc(i64 noundef %16) #15
  store ptr %17, ptr %3, align 8
  br label %18

18:                                               ; preds = %15, %8
  %19 = load ptr, ptr %3, align 8
  ret ptr %19
}

; Function Attrs: nounwind uwtable
define hidden i32 @hwloc_internal_cpukinds_dup(ptr noundef %0, ptr noundef %1) #0 {
  %3 = alloca i32, align 4
  %4 = alloca ptr, align 8
  %5 = alloca ptr, align 8
  %6 = alloca ptr, align 8
  %7 = alloca ptr, align 8
  %8 = alloca i32, align 4
  %9 = alloca i32, align 4
  store ptr %0, ptr %4, align 8, !tbaa !3
  store ptr %1, ptr %5, align 8, !tbaa !3
  call void @llvm.lifetime.start.p0(i64 8, ptr %6) #14
  %10 = load ptr, ptr %4, align 8, !tbaa !3
  %11 = getelementptr inbounds nuw %struct.hwloc_topology, ptr %10, i32 0, i32 41
  %12 = load ptr, ptr %11, align 8, !tbaa !41
  store ptr %12, ptr %6, align 8, !tbaa !42
  call void @llvm.lifetime.start.p0(i64 8, ptr %7) #14
  call void @llvm.lifetime.start.p0(i64 4, ptr %8) #14
  %13 = load ptr, ptr %5, align 8, !tbaa !3
  %14 = getelementptr inbounds nuw %struct.hwloc_topology, ptr %13, i32 0, i32 29
  %15 = load i32, ptr %14, align 8, !tbaa !33
  %16 = icmp ne i32 %15, 0
  br i1 %16, label %18, label %17

17:                                               ; preds = %2
  store i32 0, ptr %3, align 4
  store i32 1, ptr %9, align 4
  br label %118

18:                                               ; preds = %2
  %19 = load ptr, ptr %6, align 8, !tbaa !42
  %20 = load ptr, ptr %5, align 8, !tbaa !3
  %21 = getelementptr inbounds nuw %struct.hwloc_topology, ptr %20, i32 0, i32 29
  %22 = load i32, ptr %21, align 8, !tbaa !33
  %23 = zext i32 %22 to i64
  %24 = mul i64 %23, 40
  %25 = call ptr @hwloc_tma_malloc(ptr noundef %19, i64 noundef %24)
  store ptr %25, ptr %7, align 8, !tbaa !36
  %26 = load ptr, ptr %7, align 8, !tbaa !36
  %27 = icmp ne ptr %26, null
  br i1 %27, label %29, label %28

28:                                               ; preds = %18
  store i32 -1, ptr %3, align 4
  store i32 1, ptr %9, align 4
  br label %118

29:                                               ; preds = %18
  %30 = load ptr, ptr %7, align 8, !tbaa !36
  %31 = load ptr, ptr %4, align 8, !tbaa !3
  %32 = getelementptr inbounds nuw %struct.hwloc_topology, ptr %31, i32 0, i32 31
  store ptr %30, ptr %32, align 8, !tbaa !8
  %33 = load ptr, ptr %5, align 8, !tbaa !3
  %34 = getelementptr inbounds nuw %struct.hwloc_topology, ptr %33, i32 0, i32 29
  %35 = load i32, ptr %34, align 8, !tbaa !33
  %36 = load ptr, ptr %4, align 8, !tbaa !3
  %37 = getelementptr inbounds nuw %struct.hwloc_topology, ptr %36, i32 0, i32 29
  store i32 %35, ptr %37, align 8, !tbaa !33
  %38 = load ptr, ptr %5, align 8, !tbaa !3
  %39 = getelementptr inbounds nuw %struct.hwloc_topology, ptr %38, i32 0, i32 29
  %40 = load i32, ptr %39, align 8, !tbaa !33
  %41 = load ptr, ptr %4, align 8, !tbaa !3
  %42 = getelementptr inbounds nuw %struct.hwloc_topology, ptr %41, i32 0, i32 30
  store i32 %40, ptr %42, align 4, !tbaa !34
  %43 = load ptr, ptr %7, align 8, !tbaa !36
  %44 = load ptr, ptr %5, align 8, !tbaa !3
  %45 = getelementptr inbounds nuw %struct.hwloc_topology, ptr %44, i32 0, i32 31
  %46 = load ptr, ptr %45, align 8, !tbaa !8
  %47 = load ptr, ptr %5, align 8, !tbaa !3
  %48 = getelementptr inbounds nuw %struct.hwloc_topology, ptr %47, i32 0, i32 29
  %49 = load i32, ptr %48, align 8, !tbaa !33
  %50 = zext i32 %49 to i64
  %51 = mul i64 %50, 40
  call void @llvm.memcpy.p0.p0.i64(ptr align 8 %43, ptr align 8 %46, i64 %51, i1 false)
  store i32 0, ptr %8, align 4, !tbaa !35
  br label %52

52:                                               ; preds = %112, %29
  %53 = load i32, ptr %8, align 4, !tbaa !35
  %54 = load ptr, ptr %5, align 8, !tbaa !3
  %55 = getelementptr inbounds nuw %struct.hwloc_topology, ptr %54, i32 0, i32 29
  %56 = load i32, ptr %55, align 8, !tbaa !33
  %57 = icmp ult i32 %53, %56
  br i1 %57, label %58, label %115

58:                                               ; preds = %52
  %59 = load ptr, ptr %6, align 8, !tbaa !42
  %60 = load ptr, ptr %5, align 8, !tbaa !3
  %61 = getelementptr inbounds nuw %struct.hwloc_topology, ptr %60, i32 0, i32 31
  %62 = load ptr, ptr %61, align 8, !tbaa !8
  %63 = load i32, ptr %8, align 4, !tbaa !35
  %64 = zext i32 %63 to i64
  %65 = getelementptr inbounds nuw %struct.hwloc_internal_cpukind_s, ptr %62, i64 %64
  %66 = getelementptr inbounds nuw %struct.hwloc_internal_cpukind_s, ptr %65, i32 0, i32 0
  %67 = load ptr, ptr %66, align 8, !tbaa !37
  %68 = call ptr @hwloc_bitmap_tma_dup(ptr noundef %59, ptr noundef %67)
  %69 = load ptr, ptr %7, align 8, !tbaa !36
  %70 = load i32, ptr %8, align 4, !tbaa !35
  %71 = zext i32 %70 to i64
  %72 = getelementptr inbounds nuw %struct.hwloc_internal_cpukind_s, ptr %69, i64 %71
  %73 = getelementptr inbounds nuw %struct.hwloc_internal_cpukind_s, ptr %72, i32 0, i32 0
  store ptr %68, ptr %73, align 8, !tbaa !37
  %74 = load ptr, ptr %7, align 8, !tbaa !36
  %75 = load i32, ptr %8, align 4, !tbaa !35
  %76 = zext i32 %75 to i64
  %77 = getelementptr inbounds nuw %struct.hwloc_internal_cpukind_s, ptr %74, i64 %76
  %78 = getelementptr inbounds nuw %struct.hwloc_internal_cpukind_s, ptr %77, i32 0, i32 0
  %79 = load ptr, ptr %78, align 8, !tbaa !37
  %80 = icmp ne ptr %79, null
  br i1 %80, label %85, label %81

81:                                               ; preds = %58
  %82 = load i32, ptr %8, align 4, !tbaa !35
  %83 = load ptr, ptr %4, align 8, !tbaa !3
  %84 = getelementptr inbounds nuw %struct.hwloc_topology, ptr %83, i32 0, i32 29
  store i32 %82, ptr %84, align 8, !tbaa !33
  br label %116

85:                                               ; preds = %58
  %86 = load ptr, ptr %6, align 8, !tbaa !42
  %87 = load ptr, ptr %7, align 8, !tbaa !36
  %88 = load i32, ptr %8, align 4, !tbaa !35
  %89 = zext i32 %88 to i64
  %90 = getelementptr inbounds nuw %struct.hwloc_internal_cpukind_s, ptr %87, i64 %89
  %91 = getelementptr inbounds nuw %struct.hwloc_internal_cpukind_s, ptr %90, i32 0, i32 4
  %92 = load ptr, ptr %5, align 8, !tbaa !3
  %93 = getelementptr inbounds nuw %struct.hwloc_topology, ptr %92, i32 0, i32 31
  %94 = load ptr, ptr %93, align 8, !tbaa !8
  %95 = load i32, ptr %8, align 4, !tbaa !35
  %96 = zext i32 %95 to i64
  %97 = getelementptr inbounds nuw %struct.hwloc_internal_cpukind_s, ptr %94, i64 %96
  %98 = getelementptr inbounds nuw %struct.hwloc_internal_cpukind_s, ptr %97, i32 0, i32 4
  %99 = call i32 @hwloc__tma_dup_infos(ptr noundef %86, ptr noundef %91, ptr noundef %98)
  %100 = icmp slt i32 %99, 0
  br i1 %100, label %101, label %111

101:                                              ; preds = %85
  %102 = load ptr, ptr %7, align 8, !tbaa !36
  %103 = load i32, ptr %8, align 4, !tbaa !35
  %104 = zext i32 %103 to i64
  %105 = getelementptr inbounds nuw %struct.hwloc_internal_cpukind_s, ptr %102, i64 %104
  %106 = getelementptr inbounds nuw %struct.hwloc_internal_cpukind_s, ptr %105, i32 0, i32 0
  %107 = load ptr, ptr %106, align 8, !tbaa !37
  call void @hwloc_bitmap_free(ptr noundef %107)
  %108 = load i32, ptr %8, align 4, !tbaa !35
  %109 = load ptr, ptr %4, align 8, !tbaa !3
  %110 = getelementptr inbounds nuw %struct.hwloc_topology, ptr %109, i32 0, i32 29
  store i32 %108, ptr %110, align 8, !tbaa !33
  br label %116

111:                                              ; preds = %85
  br label %112

112:                                              ; preds = %111
  %113 = load i32, ptr %8, align 4, !tbaa !35
  %114 = add i32 %113, 1
  store i32 %114, ptr %8, align 4, !tbaa !35
  br label %52, !llvm.loop !43

115:                                              ; preds = %52
  store i32 0, ptr %3, align 4
  store i32 1, ptr %9, align 4
  br label %118

116:                                              ; preds = %101, %81
  %117 = load ptr, ptr %4, align 8, !tbaa !3
  call void @hwloc_internal_cpukinds_destroy(ptr noundef %117)
  store i32 -1, ptr %3, align 4
  store i32 1, ptr %9, align 4
  br label %118

118:                                              ; preds = %116, %115, %28, %17
  call void @llvm.lifetime.end.p0(i64 4, ptr %8) #14
  call void @llvm.lifetime.end.p0(i64 8, ptr %7) #14
  call void @llvm.lifetime.end.p0(i64 8, ptr %6) #14
  %119 = load i32, ptr %3, align 4
  ret i32 %119
}