; Function Attrs: nounwind uwtable
define hidden range(i32 -1, 1) i32 @hwloc_internal_cpukinds_dup(ptr noundef captures(none) %0, ptr noundef readonly captures(none) %1) local_unnamed_addr #1 {
  %3 = getelementptr inbounds nuw i8, ptr %0, i64 840
  %4 = load ptr, ptr %3, align 8, !tbaa !36
  %5 = getelementptr inbounds nuw i8, ptr %1, i64 760
  %6 = load i32, ptr %5, align 8, !tbaa !3
  %.not = icmp eq i32 %6, 0
  br i1 %.not, label %.loopexit, label %7

7:                                                ; preds = %2
  %8 = zext i32 %6 to i64
  %9 = mul nuw nsw i64 %8, 40
  %.not.i = icmp eq ptr %4, null
  br i1 %.not.i, label %13, label %10

10:                                               ; preds = %7
  %11 = load ptr, ptr %4, align 8, !tbaa !37
  %12 = tail call ptr %11(ptr noundef nonnull %4, i64 noundef range(i64 40, 171798691801) %9) #22
  br label %hwloc_tma_malloc.exit

13:                                               ; preds = %7
  %14 = tail call noalias ptr @malloc(i64 noundef range(i64 40, 171798691801) %9) #23
  br label %hwloc_tma_malloc.exit

hwloc_tma_malloc.exit:                            ; preds = %10, %13
  %.0.i = phi ptr [ %12, %10 ], [ %14, %13 ]
  %.not39 = icmp eq ptr %.0.i, null
  br i1 %.not39, label %.loopexit, label %15

15:                                               ; preds = %hwloc_tma_malloc.exit
  %16 = getelementptr inbounds nuw i8, ptr %0, i64 768
  store ptr %.0.i, ptr %16, align 8, !tbaa !31
  %17 = load i32, ptr %5, align 8, !tbaa !3
  %18 = getelementptr inbounds nuw i8, ptr %0, i64 760
  store i32 %17, ptr %18, align 8, !tbaa !3
  %19 = getelementptr inbounds nuw i8, ptr %0, i64 764
  store i32 %17, ptr %19, align 4, !tbaa !39
  %20 = getelementptr inbounds nuw i8, ptr %1, i64 768
  %21 = load ptr, ptr %20, align 8, !tbaa !31
  %22 = zext i32 %17 to i64
  %23 = mul nuw nsw i64 %22, 40
  tail call void @llvm.memcpy.p0.p0.i64(ptr nonnull align 8 %.0.i, ptr align 8 %21, i64 %23, i1 false)
  %24 = load i32, ptr %5, align 8, !tbaa !3
  %.not48 = icmp eq i32 %24, 0
  br i1 %.not48, label %.loopexit, label %.lr.ph

.lr.ph:                                           ; preds = %15, %38
  %indvars.iv = phi i64 [ %indvars.iv.next, %38 ], [ 0, %15 ]
  %25 = load ptr, ptr %20, align 8, !tbaa !31
  %26 = getelementptr inbounds nuw %struct.hwloc_internal_cpukind_s, ptr %25, i64 %indvars.iv
  %27 = load ptr, ptr %26, align 8, !tbaa !32
  %28 = tail call ptr @hwloc_bitmap_tma_dup(ptr noundef %4, ptr noundef %27) #22
  %29 = getelementptr inbounds nuw %struct.hwloc_internal_cpukind_s, ptr %.0.i, i64 %indvars.iv
  store ptr %28, ptr %29, align 8, !tbaa !32
  %.not40 = icmp eq ptr %28, null
  br i1 %.not40, label %.loopexit42, label %30

30:                                               ; preds = %.lr.ph
  %31 = getelementptr inbounds nuw i8, ptr %29, i64 24
  %32 = load ptr, ptr %20, align 8, !tbaa !31
  %33 = getelementptr inbounds nuw %struct.hwloc_internal_cpukind_s, ptr %32, i64 %indvars.iv, i32 4
  %34 = tail call i32 @hwloc__tma_dup_infos(ptr noundef %4, ptr noundef nonnull %31, ptr noundef nonnull %33) #22
  %35 = icmp slt i32 %34, 0
  br i1 %35, label %36, label %38

36:                                               ; preds = %30
  %37 = load ptr, ptr %29, align 8, !tbaa !32
  tail call void @hwloc_bitmap_free(ptr noundef %37) #22
  br label %.loopexit42

38:                                               ; preds = %30
  %indvars.iv.next = add nuw nsw i64 %indvars.iv, 1
  %39 = load i32, ptr %5, align 8, !tbaa !3
  %40 = zext i32 %39 to i64
  %41 = icmp samesign ult i64 %indvars.iv.next, %40
  br i1 %41, label %.lr.ph, label %.loopexit, !llvm.loop !40

.loopexit42:                                      ; preds = %.lr.ph, %36
  %.04753 = trunc i64 %indvars.iv to i32
  store i32 %.04753, ptr %18, align 8, !tbaa !3
  %.not.i41 = icmp eq i32 %.04753, 0
  br i1 %.not.i41, label %hwloc_internal_cpukinds_destroy.exit, label %.lr.ph.i

.lr.ph.i:                                         ; preds = %.loopexit42, %.lr.ph.i
  %indvars.iv.i = phi i64 [ %indvars.iv.next.i, %.lr.ph.i ], [ 0, %.loopexit42 ]
  %42 = load ptr, ptr %16, align 8, !tbaa !31
  %43 = getelementptr inbounds nuw %struct.hwloc_internal_cpukind_s, ptr %42, i64 %indvars.iv.i
  %44 = load ptr, ptr %43, align 8, !tbaa !32
  tail call void @hwloc_bitmap_free(ptr noundef %44) #22
  %45 = getelementptr inbounds nuw i8, ptr %43, i64 24
  tail call void @hwloc__free_infos(ptr noundef nonnull %45) #22
  %indvars.iv.next.i = add nuw nsw i64 %indvars.iv.i, 1
  %46 = load i32, ptr %18, align 8, !tbaa !3
  %47 = zext i32 %46 to i64
  %48 = icmp samesign ult i64 %indvars.iv.next.i, %47
  br i1 %48, label %.lr.ph.i, label %hwloc_internal_cpukinds_destroy.exit, !llvm.loop !34

hwloc_internal_cpukinds_destroy.exit:             ; preds = %.lr.ph.i, %.loopexit42
  %49 = load ptr, ptr %16, align 8, !tbaa !31
  tail call void @free(ptr noundef %49) #22
  store ptr null, ptr %16, align 8, !tbaa !31
  store i32 0, ptr %18, align 8, !tbaa !3
  br label %.loopexit

.loopexit:                                        ; preds = %38, %15, %hwloc_tma_malloc.exit, %2, %hwloc_internal_cpukinds_destroy.exit
  %.036 = phi i32 [ -1, %hwloc_internal_cpukinds_destroy.exit ], [ 0, %2 ], [ -1, %hwloc_tma_malloc.exit ], [ 0, %15 ], [ 0, %38 ]
  ret i32 %.036
}